target datalayout = "e-m:e-p270:32:32-p271:32:32-p272:64:64-i64:64-i128:128-f80:128-n8:16:32:64-S128"
target triple = "x86_64-pc-linux-gnu"

%"class.zxing::qrcode::FinderPattern" = type { %"class.zxing::ResultPoint.base", float, i32, float, i32, i32 }
%"class.zxing::ResultPoint.base" = type { %"class.zxing::Counted.base", float, float }
%"class.zxing::Counted.base" = type <{ ptr, i32 }>

; Function Attrs: mustprogress uwtable
define hidden void @_ZN5zxing6qrcode13FinderPatternC2Efff(ptr noundef nonnull align 8 dereferenceable(40) %0, float noundef %1, float noundef %2, float noundef %3) unnamed_addr #0 align 2 {
  %5 = alloca ptr, align 8
  %6 = alloca float, align 4
  %7 = alloca float, align 4
  %8 = alloca float, align 4
  store ptr %0, ptr %5, align 8, !tbaa !3
  store float %1, ptr %6, align 4, !tbaa !8
  store float %2, ptr %7, align 4, !tbaa !8
  store float %3, ptr %8, align 4, !tbaa !8
  %9 = load ptr, ptr %5, align 8
  %10 = load float, ptr %6, align 4, !tbaa !8
  %11 = load float, ptr %7, align 4, !tbaa !8
  call void @_ZN5zxing11ResultPointC2Eff(ptr noundef nonnull align 8 dereferenceable(20) %9, float noundef %10, float noundef %11)
  store ptr getelementptr inbounds inrange(-16, 48) ({ [8 x ptr] }, ptr @_ZTVN5zxing6qrcode13FinderPatternE, i32 0, i32 0, i32 2), ptr %9, align 8, !tbaa !10
  %12 = getelementptr inbounds nuw %"class.zxing::qrcode::FinderPattern", ptr %9, i32 0, i32 1
  %13 = load float, ptr %8, align 4, !tbaa !8
  store float %13, ptr %12, align 4, !tbaa !12
  %14 = getelementptr inbounds nuw %"class.zxing::qrcode::FinderPattern", ptr %9, i32 0, i32 2
  store i32 1, ptr %14, align 8, !tbaa !18
  %15 = getelementptr inbounds nuw %"class.zxing::qrcode::FinderPattern", ptr %9, i32 0, i32 4
  store i32 0, ptr %15, align 8, !tbaa !19
  %16 = getelementptr inbounds nuw %"class.zxing::qrcode::FinderPattern", ptr %9, i32 0, i32 5
  store i32 3, ptr %16, align 4, !tbaa !20
  %17 = getelementptr inbounds nuw %"class.zxing::qrcode::FinderPattern", ptr %9, i32 0, i32 3
  store float -1.000000e+00, ptr %17, align 4, !tbaa !21
  ret void
}