; Function Attrs: mustprogress uwtable
define hidden void @_ZN5zxing6qrcode13FinderPatternC2Efff(ptr noundef nonnull align 8 dereferenceable(40) %0, float noundef %1, float noundef %2, float noundef %3) unnamed_addr #0 align 2 {
  tail call void @_ZN5zxing11ResultPointC2Eff(ptr noundef nonnull align 8 dereferenceable(20) %0, float noundef %1, float noundef %2)
  store ptr getelementptr inbounds nuw inrange(-16, 48) (i8, ptr @_ZTVN5zxing6qrcode13FinderPatternE, i64 16), ptr %0, align 8, !tbaa !3
  %5 = getelementptr inbounds nuw i8, ptr %0, i64 20
  store float %3, ptr %5, align 4, !tbaa !6
  %6 = getelementptr inbounds nuw i8, ptr %0, i64 24
  store i32 1, ptr %6, align 8, !tbaa !14
  %7 = getelementptr inbounds nuw i8, ptr %0, i64 32
  store i32 0, ptr %7, align 8, !tbaa !15
  %8 = getelementptr inbounds nuw i8, ptr %0, i64 36
  store i32 3, ptr %8, align 4, !tbaa !16
  %9 = getelementptr inbounds nuw i8, ptr %0, i64 28
  store float -1.000000e+00, ptr %9, align 4, !tbaa !17
  ret void
}